target datalayout = "e-m:e-p270:32:32-p271:32:32-p272:64:64-i64:64-i128:128-f80:128-n8:16:32:64-S128"
target triple = "x86_64-pc-linux-gnu"

%struct.Bus_Man_t_ = type { ptr, ptr, ptr, ptr, ptr, ptr, ptr, ptr, ptr, ptr, ptr, ptr }
%struct.Vec_Ptr_t_ = type { i32, i32, ptr }
%struct.Vec_Flt_t_ = type { i32, i32, ptr }

; Function Attrs: inlinehint nounwind uwtable
define internal void @Vec_FltFreeP(ptr noundef %0) #4 {
  %2 = alloca ptr, align 8
  store ptr %0, ptr %2, align 8, !tbaa !78
  %3 = load ptr, ptr %2, align 8, !tbaa !78
  %4 = load ptr, ptr %3, align 8, !tbaa !70
  %5 = icmp eq ptr %4, null
  br i1 %5, label %6, label %7

6:                                                ; preds = %1
  br label %32

7:                                                ; preds = %1
  %8 = load ptr, ptr %2, align 8, !tbaa !78
  %9 = load ptr, ptr %8, align 8, !tbaa !70
  %10 = getelementptr inbounds nuw %struct.Vec_Flt_t_, ptr %9, i32 0, i32 2
  %11 = load ptr, ptr %10, align 8, !tbaa !73
  %12 = icmp ne ptr %11, null
  br i1 %12, label %13, label %21

13:                                               ; preds = %7
  %14 = load ptr, ptr %2, align 8, !tbaa !78
  %15 = load ptr, ptr %14, align 8, !tbaa !70
  %16 = getelementptr inbounds nuw %struct.Vec_Flt_t_, ptr %15, i32 0, i32 2
  %17 = load ptr, ptr %16, align 8, !tbaa !73
  call void @free(ptr noundef %17) #12
  %18 = load ptr, ptr %2, align 8, !tbaa !78
  %19 = load ptr, ptr %18, align 8, !tbaa !70
  %20 = getelementptr inbounds nuw %struct.Vec_Flt_t_, ptr %19, i32 0, i32 2
  store ptr null, ptr %20, align 8, !tbaa !73
  br label %22

21:                                               ; preds = %7
  br label %22

22:                                               ; preds = %21, %13
  %23 = load ptr, ptr %2, align 8, !tbaa !78
  %24 = load ptr, ptr %23, align 8, !tbaa !70
  %25 = icmp ne ptr %24, null
  br i1 %25, label %26, label %30

26:                                               ; preds = %22
  %27 = load ptr, ptr %2, align 8, !tbaa !78
  %28 = load ptr, ptr %27, align 8, !tbaa !70
  call void @free(ptr noundef %28) #12
  %29 = load ptr, ptr %2, align 8, !tbaa !78
  store ptr null, ptr %29, align 8, !tbaa !70
  br label %31

30:                                               ; preds = %22
  br label %31

31:                                               ; preds = %30, %26
  br label %32

32:                                               ; preds = %31, %6
  ret void
}

; Function Attrs: inlinehint nounwind uwtable
define internal void @Vec_PtrFreeP(ptr noundef %0) #4 {
  %2 = alloca ptr, align 8
  store ptr %0, ptr %2, align 8, !tbaa !76
  %3 = load ptr, ptr %2, align 8, !tbaa !76
  %4 = load ptr, ptr %3, align 8, !tbaa !66
  %5 = icmp eq ptr %4, null
  br i1 %5, label %6, label %7

6:                                                ; preds = %1
  br label %32

7:                                                ; preds = %1
  %8 = load ptr, ptr %2, align 8, !tbaa !76
  %9 = load ptr, ptr %8, align 8, !tbaa !66
  %10 = getelementptr inbounds nuw %struct.Vec_Ptr_t_, ptr %9, i32 0, i32 2
  %11 = load ptr, ptr %10, align 8, !tbaa !69
  %12 = icmp ne ptr %11, null
  br i1 %12, label %13, label %21

13:                                               ; preds = %7
  %14 = load ptr, ptr %2, align 8, !tbaa !76
  %15 = load ptr, ptr %14, align 8, !tbaa !66
  %16 = getelementptr inbounds nuw %struct.Vec_Ptr_t_, ptr %15, i32 0, i32 2
  %17 = load ptr, ptr %16, align 8, !tbaa !69
  call void @free(ptr noundef %17) #12
  %18 = load ptr, ptr %2, align 8, !tbaa !76
  %19 = load ptr, ptr %18, align 8, !tbaa !66
  %20 = getelementptr inbounds nuw %struct.Vec_Ptr_t_, ptr %19, i32 0, i32 2
  store ptr null, ptr %20, align 8, !tbaa !69
  br label %22

21:                                               ; preds = %7
  br label %22

22:                                               ; preds = %21, %13
  %23 = load ptr, ptr %2, align 8, !tbaa !76
  %24 = load ptr, ptr %23, align 8, !tbaa !66
  %25 = icmp ne ptr %24, null
  br i1 %25, label %26, label %30

26:                                               ; preds = %22
  %27 = load ptr, ptr %2, align 8, !tbaa !76
  %28 = load ptr, ptr %27, align 8, !tbaa !66
  call void @free(ptr noundef %28) #12
  %29 = load ptr, ptr %2, align 8, !tbaa !76
  store ptr null, ptr %29, align 8, !tbaa !66
  br label %31

30:                                               ; preds = %22
  br label %31

31:                                               ; preds = %30, %26
  br label %32

32:                                               ; preds = %31, %6
  ret void
}

; Function Attrs: nounwind uwtable
define void @Bus_ManStop(ptr noundef %0) #0 {
  %2 = alloca ptr, align 8
  store ptr %0, ptr %2, align 8, !tbaa !12
  %3 = load ptr, ptr %2, align 8, !tbaa !12
  %4 = getelementptr inbounds nuw %struct.Bus_Man_t_, ptr %3, i32 0, i32 11
  call void @Vec_PtrFreeP(ptr noundef %4)
  %5 = load ptr, ptr %2, align 8, !tbaa !12
  %6 = getelementptr inbounds nuw %struct.Bus_Man_t_, ptr %5, i32 0, i32 6
  call void @Vec_FltFreeP(ptr noundef %6)
  %7 = load ptr, ptr %2, align 8, !tbaa !12
  %8 = getelementptr inbounds nuw %struct.Bus_Man_t_, ptr %7, i32 0, i32 7
  call void @Vec_FltFreeP(ptr noundef %8)
  %9 = load ptr, ptr %2, align 8, !tbaa !12
  %10 = getelementptr inbounds nuw %struct.Bus_Man_t_, ptr %9, i32 0, i32 8
  call void @Vec_FltFreeP(ptr noundef %10)
  %11 = load ptr, ptr %2, align 8, !tbaa !12
  %12 = getelementptr inbounds nuw %struct.Bus_Man_t_, ptr %11, i32 0, i32 9
  call void @Vec_FltFreeP(ptr noundef %12)
  %13 = load ptr, ptr %2, align 8, !tbaa !12
  %14 = getelementptr inbounds nuw %struct.Bus_Man_t_, ptr %13, i32 0, i32 10
  call void @Vec_FltFreeP(ptr noundef %14)
  %15 = load ptr, ptr %2, align 8, !tbaa !12
  %16 = icmp ne ptr %15, null
  br i1 %16, label %17, label %19

17:                                               ; preds = %1
  %18 = load ptr, ptr %2, align 8, !tbaa !12
  call void @free(ptr noundef %18) #12
  store ptr null, ptr %2, align 8, !tbaa !12
  br label %20

19:                                               ; preds = %1
  br label %20

20:                                               ; preds = %19, %17
  ret void
}