; Function Attrs: mustprogress nounwind willreturn uwtable
define void @Bus_ManStop(ptr noundef captures(none) %0) local_unnamed_addr #4 {
  %2 = getelementptr inbounds nuw i8, ptr %0, i64 88
  %3 = load ptr, ptr %2, align 8, !tbaa !75
  %4 = icmp eq ptr %3, null
  br i1 %4, label %Vec_PtrFreeP.exit, label %5

5:                                                ; preds = %1
  %6 = getelementptr inbounds nuw i8, ptr %3, i64 8
  %7 = load ptr, ptr %6, align 8, !tbaa !43
  %.not.i = icmp eq ptr %7, null
  br i1 %.not.i, label %10, label %.thread.i

.thread.i:                                        ; preds = %5
  tail call void @free(ptr noundef nonnull %7) #24
  %8 = load ptr, ptr %2, align 8, !tbaa !75
  %9 = getelementptr inbounds nuw i8, ptr %8, i64 8
  store ptr null, ptr %9, align 8, !tbaa !43
  br label %10

10:                                               ; preds = %.thread.i, %5
  %11 = phi ptr [ %8, %.thread.i ], [ %3, %5 ]
  tail call void @free(ptr noundef nonnull %11) #24
  store ptr null, ptr %2, align 8, !tbaa !75
  br label %Vec_PtrFreeP.exit

Vec_PtrFreeP.exit:                                ; preds = %1, %10
  %12 = getelementptr inbounds nuw i8, ptr %0, i64 48
  %13 = load ptr, ptr %12, align 8, !tbaa !76
  %14 = icmp eq ptr %13, null
  br i1 %14, label %Vec_FltFreeP.exit, label %15

15:                                               ; preds = %Vec_PtrFreeP.exit
  %16 = getelementptr inbounds nuw i8, ptr %13, i64 8
  %17 = load ptr, ptr %16, align 8, !tbaa !68
  %.not.i8 = icmp eq ptr %17, null
  br i1 %.not.i8, label %20, label %.thread.i9

.thread.i9:                                       ; preds = %15
  tail call void @free(ptr noundef nonnull %17) #24
  %18 = load ptr, ptr %12, align 8, !tbaa !76
  %19 = getelementptr inbounds nuw i8, ptr %18, i64 8
  store ptr null, ptr %19, align 8, !tbaa !68
  br label %20

20:                                               ; preds = %.thread.i9, %15
  %21 = phi ptr [ %18, %.thread.i9 ], [ %13, %15 ]
  tail call void @free(ptr noundef nonnull %21) #24
  store ptr null, ptr %12, align 8, !tbaa !76
  br label %Vec_FltFreeP.exit

Vec_FltFreeP.exit:                                ; preds = %Vec_PtrFreeP.exit, %20
  %22 = getelementptr inbounds nuw i8, ptr %0, i64 56
  %23 = load ptr, ptr %22, align 8, !tbaa !76
  %24 = icmp eq ptr %23, null
  br i1 %24, label %Vec_FltFreeP.exit12, label %25

25:                                               ; preds = %Vec_FltFreeP.exit
  %26 = getelementptr inbounds nuw i8, ptr %23, i64 8
  %27 = load ptr, ptr %26, align 8, !tbaa !68
  %.not.i10 = icmp eq ptr %27, null
  br i1 %.not.i10, label %30, label %.thread.i11

.thread.i11:                                      ; preds = %25
  tail call void @free(ptr noundef nonnull %27) #24
  %28 = load ptr, ptr %22, align 8, !tbaa !76
  %29 = getelementptr inbounds nuw i8, ptr %28, i64 8
  store ptr null, ptr %29, align 8, !tbaa !68
  br label %30

30:                                               ; preds = %.thread.i11, %25
  %31 = phi ptr [ %28, %.thread.i11 ], [ %23, %25 ]
  tail call void @free(ptr noundef nonnull %31) #24
  store ptr null, ptr %22, align 8, !tbaa !76
  br label %Vec_FltFreeP.exit12

Vec_FltFreeP.exit12:                              ; preds = %Vec_FltFreeP.exit, %30
  %32 = getelementptr inbounds nuw i8, ptr %0, i64 64
  %33 = load ptr, ptr %32, align 8, !tbaa !76
  %34 = icmp eq ptr %33, null
  br i1 %34, label %Vec_FltFreeP.exit15, label %35

35:                                               ; preds = %Vec_FltFreeP.exit12
  %36 = getelementptr inbounds nuw i8, ptr %33, i64 8
  %37 = load ptr, ptr %36, align 8, !tbaa !68
  %.not.i13 = icmp eq ptr %37, null
  br i1 %.not.i13, label %40, label %.thread.i14

.thread.i14:                                      ; preds = %35
  tail call void @free(ptr noundef nonnull %37) #24
  %38 = load ptr, ptr %32, align 8, !tbaa !76
  %39 = getelementptr inbounds nuw i8, ptr %38, i64 8
  store ptr null, ptr %39, align 8, !tbaa !68
  br label %40

40:                                               ; preds = %.thread.i14, %35
  %41 = phi ptr [ %38, %.thread.i14 ], [ %33, %35 ]
  tail call void @free(ptr noundef nonnull %41) #24
  store ptr null, ptr %32, align 8, !tbaa !76
  br label %Vec_FltFreeP.exit15

Vec_FltFreeP.exit15:                              ; preds = %Vec_FltFreeP.exit12, %40
  %42 = getelementptr inbounds nuw i8, ptr %0, i64 72
  %43 = load ptr, ptr %42, align 8, !tbaa !76
  %44 = icmp eq ptr %43, null
  br i1 %44, label %Vec_FltFreeP.exit18, label %45

45:                                               ; preds = %Vec_FltFreeP.exit15
  %46 = getelementptr inbounds nuw i8, ptr %43, i64 8
  %47 = load ptr, ptr %46, align 8, !tbaa !68
  %.not.i16 = icmp eq ptr %47, null
  br i1 %.not.i16, label %50, label %.thread.i17

.thread.i17:                                      ; preds = %45
  tail call void @free(ptr noundef nonnull %47) #24
  %48 = load ptr, ptr %42, align 8, !tbaa !76
  %49 = getelementptr inbounds nuw i8, ptr %48, i64 8
  store ptr null, ptr %49, align 8, !tbaa !68
  br label %50

50:                                               ; preds = %.thread.i17, %45
  %51 = phi ptr [ %48, %.thread.i17 ], [ %43, %45 ]
  tail call void @free(ptr noundef nonnull %51) #24
  store ptr null, ptr %42, align 8, !tbaa !76
  br label %Vec_FltFreeP.exit18

Vec_FltFreeP.exit18:                              ; preds = %Vec_FltFreeP.exit15, %50
  %52 = getelementptr inbounds nuw i8, ptr %0, i64 80
  %53 = load ptr, ptr %52, align 8, !tbaa !76
  %54 = icmp eq ptr %53, null
  br i1 %54, label %62, label %55

55:                                               ; preds = %Vec_FltFreeP.exit18
  %56 = getelementptr inbounds nuw i8, ptr %53, i64 8
  %57 = load ptr, ptr %56, align 8, !tbaa !68
  %.not.i19 = icmp eq ptr %57, null
  br i1 %.not.i19, label %60, label %.thread.i20

.thread.i20:                                      ; preds = %55
  tail call void @free(ptr noundef nonnull %57) #24
  %58 = load ptr, ptr %52, align 8, !tbaa !76
  %59 = getelementptr inbounds nuw i8, ptr %58, i64 8
  store ptr null, ptr %59, align 8, !tbaa !68
  br label %60

60:                                               ; preds = %.thread.i20, %55
  %61 = phi ptr [ %58, %.thread.i20 ], [ %53, %55 ]
  tail call void @free(ptr noundef nonnull %61) #24
  br label %62

62:                                               ; preds = %Vec_FltFreeP.exit18, %60
  tail call void @free(ptr noundef nonnull %0) #24
  ret void
}